
bomb：     文件格式 elf32-i386


Disassembly of section .init:

08048710 <_init>:
 8048710:	55                   	push   %ebp
 8048711:	89 e5                	mov    %esp,%ebp
 8048713:	83 ec 08             	sub    $0x8,%esp
 8048716:	e8 39 02 00 00       	call   8048954 <call_gmon_start>
 804871b:	e8 90 02 00 00       	call   80489b0 <frame_dummy>
 8048720:	e8 1b 11 00 00       	call   8049840 <__do_global_ctors_aux>
 8048725:	c9                   	leave  
 8048726:	c3                   	ret    

Disassembly of section .plt:

08048728 <.plt>:
 8048728:	ff 35 e4 a0 04 08    	pushl  0x804a0e4
 804872e:	ff 25 e8 a0 04 08    	jmp    *0x804a0e8
 8048734:	00 00                	add    %al,(%eax)
	...

08048738 <close@plt>:
 8048738:	ff 25 ec a0 04 08    	jmp    *0x804a0ec
 804873e:	68 00 00 00 00       	push   $0x0
 8048743:	e9 e0 ff ff ff       	jmp    8048728 <.plt>

08048748 <fprintf@plt>:
 8048748:	ff 25 f0 a0 04 08    	jmp    *0x804a0f0
 804874e:	68 08 00 00 00       	push   $0x8
 8048753:	e9 d0 ff ff ff       	jmp    8048728 <.plt>

08048758 <tmpfile@plt>:
 8048758:	ff 25 f4 a0 04 08    	jmp    *0x804a0f4
 804875e:	68 10 00 00 00       	push   $0x10
 8048763:	e9 c0 ff ff ff       	jmp    8048728 <.plt>

08048768 <getenv@plt>:
 8048768:	ff 25 f8 a0 04 08    	jmp    *0x804a0f8
 804876e:	68 18 00 00 00       	push   $0x18
 8048773:	e9 b0 ff ff ff       	jmp    8048728 <.plt>

08048778 <signal@plt>:
 8048778:	ff 25 fc a0 04 08    	jmp    *0x804a0fc
 804877e:	68 20 00 00 00       	push   $0x20
 8048783:	e9 a0 ff ff ff       	jmp    8048728 <.plt>

08048788 <fflush@plt>:
 8048788:	ff 25 00 a1 04 08    	jmp    *0x804a100
 804878e:	68 28 00 00 00       	push   $0x28
 8048793:	e9 90 ff ff ff       	jmp    8048728 <.plt>

08048798 <bcopy@plt>:
 8048798:	ff 25 04 a1 04 08    	jmp    *0x804a104
 804879e:	68 30 00 00 00       	push   $0x30
 80487a3:	e9 80 ff ff ff       	jmp    8048728 <.plt>

080487a8 <rewind@plt>:
 80487a8:	ff 25 08 a1 04 08    	jmp    *0x804a108
 80487ae:	68 38 00 00 00       	push   $0x38
 80487b3:	e9 70 ff ff ff       	jmp    8048728 <.plt>

080487b8 <system@plt>:
 80487b8:	ff 25 0c a1 04 08    	jmp    *0x804a10c
 80487be:	68 40 00 00 00       	push   $0x40
 80487c3:	e9 60 ff ff ff       	jmp    8048728 <.plt>

080487c8 <puts@plt>:
 80487c8:	ff 25 10 a1 04 08    	jmp    *0x804a110
 80487ce:	68 48 00 00 00       	push   $0x48
 80487d3:	e9 50 ff ff ff       	jmp    8048728 <.plt>

080487d8 <fgets@plt>:
 80487d8:	ff 25 14 a1 04 08    	jmp    *0x804a114
 80487de:	68 50 00 00 00       	push   $0x50
 80487e3:	e9 40 ff ff ff       	jmp    8048728 <.plt>

080487e8 <sleep@plt>:
 80487e8:	ff 25 18 a1 04 08    	jmp    *0x804a118
 80487ee:	68 58 00 00 00       	push   $0x58
 80487f3:	e9 30 ff ff ff       	jmp    8048728 <.plt>

080487f8 <fputc@plt>:
 80487f8:	ff 25 1c a1 04 08    	jmp    *0x804a11c
 80487fe:	68 60 00 00 00       	push   $0x60
 8048803:	e9 20 ff ff ff       	jmp    8048728 <.plt>

08048808 <__libc_start_main@plt>:
 8048808:	ff 25 20 a1 04 08    	jmp    *0x804a120
 804880e:	68 68 00 00 00       	push   $0x68
 8048813:	e9 10 ff ff ff       	jmp    8048728 <.plt>

08048818 <printf@plt>:
 8048818:	ff 25 24 a1 04 08    	jmp    *0x804a124
 804881e:	68 70 00 00 00       	push   $0x70
 8048823:	e9 00 ff ff ff       	jmp    8048728 <.plt>

08048828 <fclose@plt>:
 8048828:	ff 25 28 a1 04 08    	jmp    *0x804a128
 804882e:	68 78 00 00 00       	push   $0x78
 8048833:	e9 f0 fe ff ff       	jmp    8048728 <.plt>

08048838 <gethostbyname@plt>:
 8048838:	ff 25 2c a1 04 08    	jmp    *0x804a12c
 804883e:	68 80 00 00 00       	push   $0x80
 8048843:	e9 e0 fe ff ff       	jmp    8048728 <.plt>

08048848 <exit@plt>:
 8048848:	ff 25 30 a1 04 08    	jmp    *0x804a130
 804884e:	68 88 00 00 00       	push   $0x88
 8048853:	e9 d0 fe ff ff       	jmp    8048728 <.plt>

08048858 <atoi@plt>:
 8048858:	ff 25 34 a1 04 08    	jmp    *0x804a134
 804885e:	68 90 00 00 00       	push   $0x90
 8048863:	e9 c0 fe ff ff       	jmp    8048728 <.plt>

08048868 <sscanf@plt>:
 8048868:	ff 25 38 a1 04 08    	jmp    *0x804a138
 804886e:	68 98 00 00 00       	push   $0x98
 8048873:	e9 b0 fe ff ff       	jmp    8048728 <.plt>

08048878 <htons@plt>:
 8048878:	ff 25 3c a1 04 08    	jmp    *0x804a13c
 804887e:	68 a0 00 00 00       	push   $0xa0
 8048883:	e9 a0 fe ff ff       	jmp    8048728 <.plt>

08048888 <connect@plt>:
 8048888:	ff 25 40 a1 04 08    	jmp    *0x804a140
 804888e:	68 a8 00 00 00       	push   $0xa8
 8048893:	e9 90 fe ff ff       	jmp    8048728 <.plt>

08048898 <fopen@plt>:
 8048898:	ff 25 44 a1 04 08    	jmp    *0x804a144
 804889e:	68 b0 00 00 00       	push   $0xb0
 80488a3:	e9 80 fe ff ff       	jmp    8048728 <.plt>

080488a8 <dup@plt>:
 80488a8:	ff 25 48 a1 04 08    	jmp    *0x804a148
 80488ae:	68 b8 00 00 00       	push   $0xb8
 80488b3:	e9 70 fe ff ff       	jmp    8048728 <.plt>

080488b8 <sprintf@plt>:
 80488b8:	ff 25 4c a1 04 08    	jmp    *0x804a14c
 80488be:	68 c0 00 00 00       	push   $0xc0
 80488c3:	e9 60 fe ff ff       	jmp    8048728 <.plt>

080488c8 <fwrite@plt>:
 80488c8:	ff 25 50 a1 04 08    	jmp    *0x804a150
 80488ce:	68 c8 00 00 00       	push   $0xc8
 80488d3:	e9 50 fe ff ff       	jmp    8048728 <.plt>

080488d8 <socket@plt>:
 80488d8:	ff 25 54 a1 04 08    	jmp    *0x804a154
 80488de:	68 d0 00 00 00       	push   $0xd0
 80488e3:	e9 40 fe ff ff       	jmp    8048728 <.plt>

080488e8 <__ctype_b_loc@plt>:
 80488e8:	ff 25 58 a1 04 08    	jmp    *0x804a158
 80488ee:	68 d8 00 00 00       	push   $0xd8
 80488f3:	e9 30 fe ff ff       	jmp    8048728 <.plt>

080488f8 <cuserid@plt>:
 80488f8:	ff 25 5c a1 04 08    	jmp    *0x804a15c
 80488fe:	68 e0 00 00 00       	push   $0xe0
 8048903:	e9 20 fe ff ff       	jmp    8048728 <.plt>

08048908 <__gmon_start__@plt>:
 8048908:	ff 25 60 a1 04 08    	jmp    *0x804a160
 804890e:	68 e8 00 00 00       	push   $0xe8
 8048913:	e9 10 fe ff ff       	jmp    8048728 <.plt>

08048918 <strcpy@plt>:
 8048918:	ff 25 64 a1 04 08    	jmp    *0x804a164
 804891e:	68 f0 00 00 00       	push   $0xf0
 8048923:	e9 00 fe ff ff       	jmp    8048728 <.plt>

Disassembly of section .text:

08048930 <_start>:
 8048930:	31 ed                	xor    %ebp,%ebp
 8048932:	5e                   	pop    %esi
 8048933:	89 e1                	mov    %esp,%ecx
 8048935:	83 e4 f0             	and    $0xfffffff0,%esp
 8048938:	50                   	push   %eax
 8048939:	54                   	push   %esp
 804893a:	52                   	push   %edx
 804893b:	68 90 97 04 08       	push   $0x8049790
 8048940:	68 e0 97 04 08       	push   $0x80497e0
 8048945:	51                   	push   %ecx
 8048946:	56                   	push   %esi
 8048947:	68 d4 89 04 08       	push   $0x80489d4
 804894c:	e8 b7 fe ff ff       	call   8048808 <__libc_start_main@plt>
 8048951:	f4                   	hlt    
 8048952:	90                   	nop
 8048953:	90                   	nop

08048954 <call_gmon_start>:
 8048954:	55                   	push   %ebp
 8048955:	89 e5                	mov    %esp,%ebp
 8048957:	53                   	push   %ebx
 8048958:	83 ec 04             	sub    $0x4,%esp
 804895b:	e8 00 00 00 00       	call   8048960 <call_gmon_start+0xc>
 8048960:	5b                   	pop    %ebx
 8048961:	81 c3 80 17 00 00    	add    $0x1780,%ebx
 8048967:	8b 93 fc ff ff ff    	mov    -0x4(%ebx),%edx
 804896d:	85 d2                	test   %edx,%edx
 804896f:	74 05                	je     8048976 <call_gmon_start+0x22>
 8048971:	e8 92 ff ff ff       	call   8048908 <__gmon_start__@plt>
 8048976:	58                   	pop    %eax
 8048977:	5b                   	pop    %ebx
 8048978:	c9                   	leave  
 8048979:	c3                   	ret    
 804897a:	90                   	nop
 804897b:	90                   	nop
 804897c:	90                   	nop
 804897d:	90                   	nop
 804897e:	90                   	nop
 804897f:	90                   	nop

08048980 <__do_global_dtors_aux>:
 8048980:	55                   	push   %ebp
 8048981:	89 e5                	mov    %esp,%ebp
 8048983:	83 ec 08             	sub    $0x8,%esp
 8048986:	80 3d 48 a8 04 08 00 	cmpb   $0x0,0x804a848
 804898d:	74 0c                	je     804899b <__do_global_dtors_aux+0x1b>
 804898f:	eb 1c                	jmp    80489ad <__do_global_dtors_aux+0x2d>
 8048991:	83 c0 04             	add    $0x4,%eax
 8048994:	a3 88 a1 04 08       	mov    %eax,0x804a188
 8048999:	ff d2                	call   *%edx
 804899b:	a1 88 a1 04 08       	mov    0x804a188,%eax
 80489a0:	8b 10                	mov    (%eax),%edx
 80489a2:	85 d2                	test   %edx,%edx
 80489a4:	75 eb                	jne    8048991 <__do_global_dtors_aux+0x11>
 80489a6:	c6 05 48 a8 04 08 01 	movb   $0x1,0x804a848
 80489ad:	c9                   	leave  
 80489ae:	c3                   	ret    
 80489af:	90                   	nop

080489b0 <frame_dummy>:
 80489b0:	55                   	push   %ebp
 80489b1:	89 e5                	mov    %esp,%ebp
 80489b3:	83 ec 08             	sub    $0x8,%esp
 80489b6:	a1 10 a0 04 08       	mov    0x804a010,%eax
 80489bb:	85 c0                	test   %eax,%eax
 80489bd:	74 12                	je     80489d1 <frame_dummy+0x21>
 80489bf:	b8 00 00 00 00       	mov    $0x0,%eax
 80489c4:	85 c0                	test   %eax,%eax
 80489c6:	74 09                	je     80489d1 <frame_dummy+0x21>
 80489c8:	c7 04 24 10 a0 04 08 	movl   $0x804a010,(%esp)
 80489cf:	ff d0                	call   *%eax
 80489d1:	c9                   	leave  
 80489d2:	c3                   	ret    
 80489d3:	90                   	nop

080489d4 <main>:
 80489d4:	8d 4c 24 04          	lea    0x4(%esp),%ecx
 80489d8:	83 e4 f0             	and    $0xfffffff0,%esp
 80489db:	ff 71 fc             	pushl  -0x4(%ecx)
 80489de:	55                   	push   %ebp
 80489df:	89 e5                	mov    %esp,%ebp
 80489e1:	51                   	push   %ecx
 80489e2:	83 ec 24             	sub    $0x24,%esp
 80489e5:	89 4d e8             	mov    %ecx,-0x18(%ebp)
 80489e8:	8b 45 e8             	mov    -0x18(%ebp),%eax
 80489eb:	83 38 01             	cmpl   $0x1,(%eax)
 80489ee:	75 0f                	jne    80489ff <main+0x2b>
 80489f0:	a1 44 a8 04 08       	mov    0x804a844,%eax
 80489f5:	a3 50 a8 04 08       	mov    %eax,0x804a850
 80489fa:	e9 88 00 00 00       	jmp    8048a87 <main+0xb3>
 80489ff:	8b 55 e8             	mov    -0x18(%ebp),%edx
 8048a02:	83 3a 02             	cmpl   $0x2,(%edx)
 8048a05:	75 5c                	jne    8048a63 <main+0x8f>
 8048a07:	8b 4d e8             	mov    -0x18(%ebp),%ecx
 8048a0a:	8b 41 04             	mov    0x4(%ecx),%eax
 8048a0d:	83 c0 04             	add    $0x4,%eax
 8048a10:	8b 00                	mov    (%eax),%eax
 8048a12:	c7 44 24 04 98 98 04 	movl   $0x8049898,0x4(%esp)
 8048a19:	08 
 8048a1a:	89 04 24             	mov    %eax,(%esp)
 8048a1d:	e8 76 fe ff ff       	call   8048898 <fopen@plt>
 8048a22:	a3 50 a8 04 08       	mov    %eax,0x804a850
 8048a27:	a1 50 a8 04 08       	mov    0x804a850,%eax
 8048a2c:	85 c0                	test   %eax,%eax
 8048a2e:	75 57                	jne    8048a87 <main+0xb3>
 8048a30:	8b 55 e8             	mov    -0x18(%ebp),%edx
 8048a33:	8b 42 04             	mov    0x4(%edx),%eax
 8048a36:	83 c0 04             	add    $0x4,%eax
 8048a39:	8b 10                	mov    (%eax),%edx
 8048a3b:	8b 4d e8             	mov    -0x18(%ebp),%ecx
 8048a3e:	8b 41 04             	mov    0x4(%ecx),%eax
 8048a41:	8b 00                	mov    (%eax),%eax
 8048a43:	89 54 24 08          	mov    %edx,0x8(%esp)
 8048a47:	89 44 24 04          	mov    %eax,0x4(%esp)
 8048a4b:	c7 04 24 9a 98 04 08 	movl   $0x804989a,(%esp)
 8048a52:	e8 c1 fd ff ff       	call   8048818 <printf@plt>
 8048a57:	c7 04 24 08 00 00 00 	movl   $0x8,(%esp)
 8048a5e:	e8 e5 fd ff ff       	call   8048848 <exit@plt>
 8048a63:	8b 55 e8             	mov    -0x18(%ebp),%edx
 8048a66:	8b 42 04             	mov    0x4(%edx),%eax
 8048a69:	8b 00                	mov    (%eax),%eax
 8048a6b:	89 44 24 04          	mov    %eax,0x4(%esp)
 8048a6f:	c7 04 24 b7 98 04 08 	movl   $0x80498b7,(%esp)
 8048a76:	e8 9d fd ff ff       	call   8048818 <printf@plt>
 8048a7b:	c7 04 24 08 00 00 00 	movl   $0x8,(%esp)
 8048a82:	e8 c1 fd ff ff       	call   8048848 <exit@plt>
 8048a87:	e8 03 08 00 00       	call   804928f <initialize_bomb>
 8048a8c:	c7 04 24 d4 98 04 08 	movl   $0x80498d4,(%esp)
 8048a93:	e8 30 fd ff ff       	call   80487c8 <puts@plt>
 8048a98:	c7 04 24 10 99 04 08 	movl   $0x8049910,(%esp)
 8048a9f:	e8 24 fd ff ff       	call   80487c8 <puts@plt>
 8048aa4:	e8 a5 08 00 00       	call   804934e <read_line>
 8048aa9:	89 45 f8             	mov    %eax,-0x8(%ebp)
 8048aac:	8b 45 f8             	mov    -0x8(%ebp),%eax
 8048aaf:	89 04 24             	mov    %eax,(%esp)
 8048ab2:	e8 c9 00 00 00       	call   8048b80 <phase_1>
 8048ab7:	e8 48 0c 00 00       	call   8049704 <phase_defused>
 8048abc:	c7 04 24 3c 99 04 08 	movl   $0x804993c,(%esp)
 8048ac3:	e8 00 fd ff ff       	call   80487c8 <puts@plt>
 8048ac8:	e8 81 08 00 00       	call   804934e <read_line>
 8048acd:	89 45 f8             	mov    %eax,-0x8(%ebp)
 8048ad0:	8b 45 f8             	mov    -0x8(%ebp),%eax
 8048ad3:	89 04 24             	mov    %eax,(%esp)
 8048ad6:	e8 c9 00 00 00       	call   8048ba4 <phase_2>
 8048adb:	e8 24 0c 00 00       	call   8049704 <phase_defused>
 8048ae0:	c7 04 24 65 99 04 08 	movl   $0x8049965,(%esp)
 8048ae7:	e8 dc fc ff ff       	call   80487c8 <puts@plt>
 8048aec:	e8 5d 08 00 00       	call   804934e <read_line>
 8048af1:	89 45 f8             	mov    %eax,-0x8(%ebp)
 8048af4:	8b 45 f8             	mov    -0x8(%ebp),%eax
 8048af7:	89 04 24             	mov    %eax,(%esp)
 8048afa:	e8 07 01 00 00       	call   8048c06 <phase_3>
 8048aff:	e8 00 0c 00 00       	call   8049704 <phase_defused>
 8048b04:	c7 04 24 83 99 04 08 	movl   $0x8049983,(%esp)
 8048b0b:	e8 b8 fc ff ff       	call   80487c8 <puts@plt>
 8048b10:	e8 39 08 00 00       	call   804934e <read_line>
 8048b15:	89 45 f8             	mov    %eax,-0x8(%ebp)
 8048b18:	8b 45 f8             	mov    -0x8(%ebp),%eax
 8048b1b:	89 04 24             	mov    %eax,(%esp)
 8048b1e:	e8 4f 02 00 00       	call   8048d72 <phase_4>
 8048b23:	e8 dc 0b 00 00       	call   8049704 <phase_defused>
 8048b28:	c7 04 24 94 99 04 08 	movl   $0x8049994,(%esp)
 8048b2f:	e8 94 fc ff ff       	call   80487c8 <puts@plt>
 8048b34:	e8 15 08 00 00       	call   804934e <read_line>
 8048b39:	89 45 f8             	mov    %eax,-0x8(%ebp)
 8048b3c:	8b 45 f8             	mov    -0x8(%ebp),%eax
 8048b3f:	89 04 24             	mov    %eax,(%esp)
 8048b42:	e8 7e 02 00 00       	call   8048dc5 <phase_5>
 8048b47:	e8 b8 0b 00 00       	call   8049704 <phase_defused>
 8048b4c:	c7 04 24 b8 99 04 08 	movl   $0x80499b8,(%esp)
 8048b53:	e8 70 fc ff ff       	call   80487c8 <puts@plt>
 8048b58:	e8 f1 07 00 00       	call   804934e <read_line>
 8048b5d:	89 45 f8             	mov    %eax,-0x8(%ebp)
 8048b60:	8b 45 f8             	mov    -0x8(%ebp),%eax
 8048b63:	89 04 24             	mov    %eax,(%esp)
 8048b66:	e8 5e 03 00 00       	call   8048ec9 <phase_6>
 8048b6b:	e8 94 0b 00 00       	call   8049704 <phase_defused>
 8048b70:	b8 00 00 00 00       	mov    $0x0,%eax
 8048b75:	83 c4 24             	add    $0x24,%esp
 8048b78:	59                   	pop    %ecx
 8048b79:	5d                   	pop    %ebp
 8048b7a:	8d 61 fc             	lea    -0x4(%ecx),%esp
 8048b7d:	c3                   	ret    
 8048b7e:	90                   	nop
 8048b7f:	90                   	nop

08048b80 <phase_1>:
 8048b80:	55                   	push   %ebp
 8048b81:	89 e5                	mov    %esp,%ebp
 8048b83:	83 ec 08             	sub    $0x8,%esp
 8048b86:	c7 44 24 04 d8 99 04 	movl   $0x80499d8,0x4(%esp)
 8048b8d:	08 
 8048b8e:	8b 45 08             	mov    0x8(%ebp),%eax
 8048b91:	89 04 24             	mov    %eax,(%esp)
 8048b94:	e8 7a 05 00 00       	call   8049113 <strings_not_equal>
 8048b99:	85 c0                	test   %eax,%eax
 8048b9b:	74 05                	je     8048ba2 <phase_1+0x22>
 8048b9d:	e8 38 0b 00 00       	call   80496da <explode_bomb>
 8048ba2:	c9                   	leave  
 8048ba3:	c3                   	ret    

08048ba4 <phase_2>:
 8048ba4:	55                   	push   %ebp
 8048ba5:	89 e5                	mov    %esp,%ebp
 8048ba7:	83 ec 28             	sub    $0x28,%esp
 8048baa:	c7 45 fc 00 00 00 00 	movl   $0x0,-0x4(%ebp)
 8048bb1:	8d 45 e0             	lea    -0x20(%ebp),%eax
 8048bb4:	89 44 24 04          	mov    %eax,0x4(%esp)
 8048bb8:	8b 45 08             	mov    0x8(%ebp),%eax
 8048bbb:	89 04 24             	mov    %eax,(%esp)
 8048bbe:	e8 bd 04 00 00       	call   8049080 <read_six_numbers>
 8048bc3:	c7 45 f8 00 00 00 00 	movl   $0x0,-0x8(%ebp)
 8048bca:	eb 27                	jmp    8048bf3 <phase_2+0x4f>
 8048bcc:	8b 45 f8             	mov    -0x8(%ebp),%eax
 8048bcf:	8b 54 85 e0          	mov    -0x20(%ebp,%eax,4),%edx
 8048bd3:	8b 45 f8             	mov    -0x8(%ebp),%eax
 8048bd6:	83 c0 03             	add    $0x3,%eax
 8048bd9:	8b 44 85 e0          	mov    -0x20(%ebp,%eax,4),%eax
 8048bdd:	39 c2                	cmp    %eax,%edx
 8048bdf:	74 05                	je     8048be6 <phase_2+0x42>
 8048be1:	e8 f4 0a 00 00       	call   80496da <explode_bomb>
 8048be6:	8b 45 f8             	mov    -0x8(%ebp),%eax
 8048be9:	8b 44 85 e0          	mov    -0x20(%ebp,%eax,4),%eax
 8048bed:	01 45 fc             	add    %eax,-0x4(%ebp)
 8048bf0:	ff 45 f8             	incl   -0x8(%ebp)
 8048bf3:	83 7d f8 02          	cmpl   $0x2,-0x8(%ebp)
 8048bf7:	7e d3                	jle    8048bcc <phase_2+0x28>
 8048bf9:	83 7d fc 00          	cmpl   $0x0,-0x4(%ebp)
 8048bfd:	75 05                	jne    8048c04 <phase_2+0x60>
 8048bff:	e8 d6 0a 00 00       	call   80496da <explode_bomb>
 8048c04:	c9                   	leave  
 8048c05:	c3                   	ret    

08048c06 <phase_3>:
 8048c06:	55                   	push   %ebp
 8048c07:	89 e5                	mov    %esp,%ebp
 8048c09:	83 ec 38             	sub    $0x38,%esp
 8048c0c:	c7 45 f8 00 00 00 00 	movl   $0x0,-0x8(%ebp)
 8048c13:	8d 45 f0             	lea    -0x10(%ebp),%eax
 8048c16:	89 44 24 10          	mov    %eax,0x10(%esp)
 8048c1a:	8d 45 ef             	lea    -0x11(%ebp),%eax
 8048c1d:	89 44 24 0c          	mov    %eax,0xc(%esp)
 8048c21:	8d 45 f4             	lea    -0xc(%ebp),%eax
 8048c24:	89 44 24 08          	mov    %eax,0x8(%esp)
 8048c28:	c7 44 24 04 16 9a 04 	movl   $0x8049a16,0x4(%esp)
 8048c2f:	08 
 8048c30:	8b 45 08             	mov    0x8(%ebp),%eax
 8048c33:	89 04 24             	mov    %eax,(%esp)
 8048c36:	e8 2d fc ff ff       	call   8048868 <sscanf@plt>
 8048c3b:	89 45 f8             	mov    %eax,-0x8(%ebp)
 8048c3e:	83 7d f8 02          	cmpl   $0x2,-0x8(%ebp)
 8048c42:	7f 05                	jg     8048c49 <phase_3+0x43>
 8048c44:	e8 91 0a 00 00       	call   80496da <explode_bomb>
 8048c49:	8b 45 f4             	mov    -0xc(%ebp),%eax
 8048c4c:	89 45 dc             	mov    %eax,-0x24(%ebp)
 8048c4f:	83 7d dc 07          	cmpl   $0x7,-0x24(%ebp)
 8048c53:	0f 87 c0 00 00 00    	ja     8048d19 <phase_3+0x113>
 8048c59:	8b 55 dc             	mov    -0x24(%ebp),%edx
 8048c5c:	8b 04 95 20 9a 04 08 	mov    0x8049a20(,%edx,4),%eax
 8048c63:	ff e0                	jmp    *%eax
 8048c65:	c6 45 ff 6d          	movb   $0x6d,-0x1(%ebp)
 8048c69:	8b 45 f0             	mov    -0x10(%ebp),%eax
 8048c6c:	3d 9b 01 00 00       	cmp    $0x19b,%eax
 8048c71:	0f 84 ab 00 00 00    	je     8048d22 <phase_3+0x11c>
 8048c77:	e8 5e 0a 00 00       	call   80496da <explode_bomb>
 8048c7c:	e9 a1 00 00 00       	jmp    8048d22 <phase_3+0x11c>
 8048c81:	c6 45 ff 66          	movb   $0x66,-0x1(%ebp)
 8048c85:	8b 45 f0             	mov    -0x10(%ebp),%eax
 8048c88:	3d 81 00 00 00       	cmp    $0x81,%eax
 8048c8d:	0f 84 8f 00 00 00    	je     8048d22 <phase_3+0x11c>
 8048c93:	e8 42 0a 00 00       	call   80496da <explode_bomb>
 8048c98:	e9 85 00 00 00       	jmp    8048d22 <phase_3+0x11c>
 8048c9d:	c6 45 ff 6f          	movb   $0x6f,-0x1(%ebp)
 8048ca1:	8b 45 f0             	mov    -0x10(%ebp),%eax
 8048ca4:	3d 24 01 00 00       	cmp    $0x124,%eax
 8048ca9:	74 77                	je     8048d22 <phase_3+0x11c>
 8048cab:	e8 2a 0a 00 00       	call   80496da <explode_bomb>
 8048cb0:	eb 70                	jmp    8048d22 <phase_3+0x11c>
 8048cb2:	c6 45 ff 70          	movb   $0x70,-0x1(%ebp)
 8048cb6:	8b 45 f0             	mov    -0x10(%ebp),%eax
 8048cb9:	3d 6f 01 00 00       	cmp    $0x16f,%eax
 8048cbe:	74 62                	je     8048d22 <phase_3+0x11c>
 8048cc0:	e8 15 0a 00 00       	call   80496da <explode_bomb>
 8048cc5:	eb 5b                	jmp    8048d22 <phase_3+0x11c>
 8048cc7:	c6 45 ff 67          	movb   $0x67,-0x1(%ebp)
 8048ccb:	8b 45 f0             	mov    -0x10(%ebp),%eax
 8048cce:	3d 34 01 00 00       	cmp    $0x134,%eax
 8048cd3:	74 4d                	je     8048d22 <phase_3+0x11c>
 8048cd5:	e8 00 0a 00 00       	call   80496da <explode_bomb>
 8048cda:	eb 46                	jmp    8048d22 <phase_3+0x11c>
 8048cdc:	c6 45 ff 70          	movb   $0x70,-0x1(%ebp)
 8048ce0:	8b 45 f0             	mov    -0x10(%ebp),%eax
 8048ce3:	3d 0e 03 00 00       	cmp    $0x30e,%eax
 8048ce8:	74 38                	je     8048d22 <phase_3+0x11c>
 8048cea:	e8 eb 09 00 00       	call   80496da <explode_bomb>
 8048cef:	eb 31                	jmp    8048d22 <phase_3+0x11c>
 8048cf1:	c6 45 ff 79          	movb   $0x79,-0x1(%ebp)
 8048cf5:	8b 45 f0             	mov    -0x10(%ebp),%eax
 8048cf8:	3d 14 02 00 00       	cmp    $0x214,%eax
 8048cfd:	74 23                	je     8048d22 <phase_3+0x11c>
 8048cff:	e8 d6 09 00 00       	call   80496da <explode_bomb>
 8048d04:	eb 1c                	jmp    8048d22 <phase_3+0x11c>
 8048d06:	c6 45 ff 77          	movb   $0x77,-0x1(%ebp)
 8048d0a:	8b 45 f0             	mov    -0x10(%ebp),%eax
 8048d0d:	83 f8 6e             	cmp    $0x6e,%eax
 8048d10:	74 10                	je     8048d22 <phase_3+0x11c>
 8048d12:	e8 c3 09 00 00       	call   80496da <explode_bomb>
 8048d17:	eb 09                	jmp    8048d22 <phase_3+0x11c>
 8048d19:	c6 45 ff 62          	movb   $0x62,-0x1(%ebp)
 8048d1d:	e8 b8 09 00 00       	call   80496da <explode_bomb>
 8048d22:	0f b6 45 ef          	movzbl -0x11(%ebp),%eax
 8048d26:	38 45 ff             	cmp    %al,-0x1(%ebp)
 8048d29:	74 05                	je     8048d30 <phase_3+0x12a>
 8048d2b:	e8 aa 09 00 00       	call   80496da <explode_bomb>
 8048d30:	c9                   	leave  
 8048d31:	c3                   	ret    

08048d32 <func4>:
 8048d32:	55                   	push   %ebp
 8048d33:	89 e5                	mov    %esp,%ebp
 8048d35:	53                   	push   %ebx
 8048d36:	83 ec 08             	sub    $0x8,%esp
 8048d39:	83 7d 08 01          	cmpl   $0x1,0x8(%ebp)
 8048d3d:	7f 09                	jg     8048d48 <func4+0x16>
 8048d3f:	c7 45 f8 01 00 00 00 	movl   $0x1,-0x8(%ebp)
 8048d46:	eb 21                	jmp    8048d69 <func4+0x37>
 8048d48:	8b 45 08             	mov    0x8(%ebp),%eax
 8048d4b:	48                   	dec    %eax
 8048d4c:	89 04 24             	mov    %eax,(%esp)
 8048d4f:	e8 de ff ff ff       	call   8048d32 <func4>
 8048d54:	89 c3                	mov    %eax,%ebx
 8048d56:	8b 45 08             	mov    0x8(%ebp),%eax
 8048d59:	83 e8 02             	sub    $0x2,%eax
 8048d5c:	89 04 24             	mov    %eax,(%esp)
 8048d5f:	e8 ce ff ff ff       	call   8048d32 <func4>
 8048d64:	01 c3                	add    %eax,%ebx
 8048d66:	89 5d f8             	mov    %ebx,-0x8(%ebp)
 8048d69:	8b 45 f8             	mov    -0x8(%ebp),%eax
 8048d6c:	83 c4 08             	add    $0x8,%esp
 8048d6f:	5b                   	pop    %ebx
 8048d70:	5d                   	pop    %ebp
 8048d71:	c3                   	ret    

08048d72 <phase_4>:
 8048d72:	55                   	push   %ebp
 8048d73:	89 e5                	mov    %esp,%ebp
 8048d75:	83 ec 28             	sub    $0x28,%esp
 8048d78:	8d 45 f4             	lea    -0xc(%ebp),%eax
 8048d7b:	89 44 24 08          	mov    %eax,0x8(%esp)
 8048d7f:	c7 44 24 04 40 9a 04 	movl   $0x8049a40,0x4(%esp)
 8048d86:	08 
 8048d87:	8b 45 08             	mov    0x8(%ebp),%eax
 8048d8a:	89 04 24             	mov    %eax,(%esp)
 8048d8d:	e8 d6 fa ff ff       	call   8048868 <sscanf@plt>
 8048d92:	89 45 fc             	mov    %eax,-0x4(%ebp)
 8048d95:	83 7d fc 01          	cmpl   $0x1,-0x4(%ebp)
 8048d99:	75 07                	jne    8048da2 <phase_4+0x30>
 8048d9b:	8b 45 f4             	mov    -0xc(%ebp),%eax
 8048d9e:	85 c0                	test   %eax,%eax
 8048da0:	7f 05                	jg     8048da7 <phase_4+0x35>
 8048da2:	e8 33 09 00 00       	call   80496da <explode_bomb>
 8048da7:	8b 45 f4             	mov    -0xc(%ebp),%eax
 8048daa:	89 04 24             	mov    %eax,(%esp)
 8048dad:	e8 80 ff ff ff       	call   8048d32 <func4>
 8048db2:	89 45 f8             	mov    %eax,-0x8(%ebp)
 8048db5:	81 7d f8 2f 45 00 00 	cmpl   $0x452f,-0x8(%ebp)
 8048dbc:	74 05                	je     8048dc3 <phase_4+0x51>
 8048dbe:	e8 17 09 00 00       	call   80496da <explode_bomb>
 8048dc3:	c9                   	leave  
 8048dc4:	c3                   	ret    

08048dc5 <phase_5>:
 8048dc5:	55                   	push   %ebp
 8048dc6:	89 e5                	mov    %esp,%ebp
 8048dc8:	83 ec 18             	sub    $0x18,%esp
 8048dcb:	8b 45 08             	mov    0x8(%ebp),%eax
 8048dce:	89 04 24             	mov    %eax,(%esp)
 8048dd1:	e8 13 03 00 00       	call   80490e9 <string_length>
 8048dd6:	89 45 fc             	mov    %eax,-0x4(%ebp)
 8048dd9:	83 7d fc 06          	cmpl   $0x6,-0x4(%ebp)
 8048ddd:	74 05                	je     8048de4 <phase_5+0x1f>
 8048ddf:	e8 f6 08 00 00       	call   80496da <explode_bomb>
 8048de4:	c7 45 f8 00 00 00 00 	movl   $0x0,-0x8(%ebp)
 8048deb:	eb 20                	jmp    8048e0d <phase_5+0x48>
 8048ded:	8b 55 f8             	mov    -0x8(%ebp),%edx
 8048df0:	8b 45 f8             	mov    -0x8(%ebp),%eax
 8048df3:	03 45 08             	add    0x8(%ebp),%eax
 8048df6:	0f b6 00             	movzbl (%eax),%eax
 8048df9:	0f be c0             	movsbl %al,%eax
 8048dfc:	83 e0 0f             	and    $0xf,%eax
 8048dff:	0f b6 80 c0 a5 04 08 	movzbl 0x804a5c0(%eax),%eax
 8048e06:	88 44 15 f1          	mov    %al,-0xf(%ebp,%edx,1)
 8048e0a:	ff 45 f8             	incl   -0x8(%ebp)
 8048e0d:	83 7d f8 05          	cmpl   $0x5,-0x8(%ebp)
 8048e11:	7e da                	jle    8048ded <phase_5+0x28>
 8048e13:	c6 45 f7 00          	movb   $0x0,-0x9(%ebp)
 8048e17:	c7 44 24 04 43 9a 04 	movl   $0x8049a43,0x4(%esp)
 8048e1e:	08 
 8048e1f:	8d 45 f1             	lea    -0xf(%ebp),%eax
 8048e22:	89 04 24             	mov    %eax,(%esp)
 8048e25:	e8 e9 02 00 00       	call   8049113 <strings_not_equal>
 8048e2a:	85 c0                	test   %eax,%eax
 8048e2c:	74 05                	je     8048e33 <phase_5+0x6e>
 8048e2e:	e8 a7 08 00 00       	call   80496da <explode_bomb>
 8048e33:	c9                   	leave  
 8048e34:	c3                   	ret    

08048e35 <fun6>:
 8048e35:	55                   	push   %ebp
 8048e36:	89 e5                	mov    %esp,%ebp
 8048e38:	83 ec 10             	sub    $0x10,%esp
 8048e3b:	8b 45 08             	mov    0x8(%ebp),%eax
 8048e3e:	89 45 f0             	mov    %eax,-0x10(%ebp)
 8048e41:	8b 45 08             	mov    0x8(%ebp),%eax
 8048e44:	89 45 f0             	mov    %eax,-0x10(%ebp)
 8048e47:	8b 45 08             	mov    0x8(%ebp),%eax
 8048e4a:	8b 40 08             	mov    0x8(%eax),%eax
 8048e4d:	89 45 f4             	mov    %eax,-0xc(%ebp)
 8048e50:	8b 45 f0             	mov    -0x10(%ebp),%eax
 8048e53:	c7 40 08 00 00 00 00 	movl   $0x0,0x8(%eax)
 8048e5a:	eb 62                	jmp    8048ebe <fun6+0x89>
 8048e5c:	8b 45 f0             	mov    -0x10(%ebp),%eax
 8048e5f:	89 45 fc             	mov    %eax,-0x4(%ebp)
 8048e62:	8b 45 f0             	mov    -0x10(%ebp),%eax
 8048e65:	89 45 f8             	mov    %eax,-0x8(%ebp)
 8048e68:	eb 0f                	jmp    8048e79 <fun6+0x44>
 8048e6a:	8b 45 fc             	mov    -0x4(%ebp),%eax
 8048e6d:	89 45 f8             	mov    %eax,-0x8(%ebp)
 8048e70:	8b 45 fc             	mov    -0x4(%ebp),%eax
 8048e73:	8b 40 08             	mov    0x8(%eax),%eax
 8048e76:	89 45 fc             	mov    %eax,-0x4(%ebp)
 8048e79:	83 7d fc 00          	cmpl   $0x0,-0x4(%ebp)
 8048e7d:	74 0e                	je     8048e8d <fun6+0x58>
 8048e7f:	8b 45 fc             	mov    -0x4(%ebp),%eax
 8048e82:	8b 10                	mov    (%eax),%edx
 8048e84:	8b 45 f4             	mov    -0xc(%ebp),%eax
 8048e87:	8b 00                	mov    (%eax),%eax
 8048e89:	39 c2                	cmp    %eax,%edx
 8048e8b:	7f dd                	jg     8048e6a <fun6+0x35>
 8048e8d:	8b 45 f8             	mov    -0x8(%ebp),%eax
 8048e90:	3b 45 fc             	cmp    -0x4(%ebp),%eax
 8048e93:	74 0b                	je     8048ea0 <fun6+0x6b>
 8048e95:	8b 55 f8             	mov    -0x8(%ebp),%edx
 8048e98:	8b 45 f4             	mov    -0xc(%ebp),%eax
 8048e9b:	89 42 08             	mov    %eax,0x8(%edx)
 8048e9e:	eb 06                	jmp    8048ea6 <fun6+0x71>
 8048ea0:	8b 45 f4             	mov    -0xc(%ebp),%eax
 8048ea3:	89 45 f0             	mov    %eax,-0x10(%ebp)
 8048ea6:	8b 45 f4             	mov    -0xc(%ebp),%eax
 8048ea9:	8b 40 08             	mov    0x8(%eax),%eax
 8048eac:	89 45 f8             	mov    %eax,-0x8(%ebp)
 8048eaf:	8b 55 f4             	mov    -0xc(%ebp),%edx
 8048eb2:	8b 45 fc             	mov    -0x4(%ebp),%eax
 8048eb5:	89 42 08             	mov    %eax,0x8(%edx)
 8048eb8:	8b 45 f8             	mov    -0x8(%ebp),%eax
 8048ebb:	89 45 f4             	mov    %eax,-0xc(%ebp)
 8048ebe:	83 7d f4 00          	cmpl   $0x0,-0xc(%ebp)
 8048ec2:	75 98                	jne    8048e5c <fun6+0x27>
 8048ec4:	8b 45 f0             	mov    -0x10(%ebp),%eax
 8048ec7:	c9                   	leave  
 8048ec8:	c3                   	ret    

08048ec9 <phase_6>:
 8048ec9:	55                   	push   %ebp
 8048eca:	89 e5                	mov    %esp,%ebp
 8048ecc:	83 ec 18             	sub    $0x18,%esp
 8048ecf:	c7 45 f8 3c a6 04 08 	movl   $0x804a63c,-0x8(%ebp)
 8048ed6:	8b 45 08             	mov    0x8(%ebp),%eax
 8048ed9:	89 04 24             	mov    %eax,(%esp)
 8048edc:	e8 77 f9 ff ff       	call   8048858 <atoi@plt>
 8048ee1:	89 c2                	mov    %eax,%edx
 8048ee3:	8b 45 f8             	mov    -0x8(%ebp),%eax
 8048ee6:	89 10                	mov    %edx,(%eax)
 8048ee8:	8b 45 f8             	mov    -0x8(%ebp),%eax
 8048eeb:	89 04 24             	mov    %eax,(%esp)
 8048eee:	e8 42 ff ff ff       	call   8048e35 <fun6>
 8048ef3:	89 45 f8             	mov    %eax,-0x8(%ebp)
 8048ef6:	8b 45 f8             	mov    -0x8(%ebp),%eax
 8048ef9:	89 45 fc             	mov    %eax,-0x4(%ebp)
 8048efc:	c7 45 f4 01 00 00 00 	movl   $0x1,-0xc(%ebp)
 8048f03:	eb 0c                	jmp    8048f11 <phase_6+0x48>
 8048f05:	8b 45 fc             	mov    -0x4(%ebp),%eax
 8048f08:	8b 40 08             	mov    0x8(%eax),%eax
 8048f0b:	89 45 fc             	mov    %eax,-0x4(%ebp)
 8048f0e:	ff 45 f4             	incl   -0xc(%ebp)
 8048f11:	83 7d f4 08          	cmpl   $0x8,-0xc(%ebp)
 8048f15:	7e ee                	jle    8048f05 <phase_6+0x3c>
 8048f17:	8b 45 fc             	mov    -0x4(%ebp),%eax
 8048f1a:	8b 10                	mov    (%eax),%edx
 8048f1c:	a1 3c a6 04 08       	mov    0x804a63c,%eax
 8048f21:	39 c2                	cmp    %eax,%edx
 8048f23:	74 05                	je     8048f2a <phase_6+0x61>
 8048f25:	e8 b0 07 00 00       	call   80496da <explode_bomb>
 8048f2a:	c9                   	leave  
 8048f2b:	c3                   	ret    

08048f2c <fun7>:
 8048f2c:	55                   	push   %ebp
 8048f2d:	89 e5                	mov    %esp,%ebp
 8048f2f:	83 ec 0c             	sub    $0xc,%esp
 8048f32:	83 7d 08 00          	cmpl   $0x0,0x8(%ebp)
 8048f36:	75 09                	jne    8048f41 <fun7+0x15>
 8048f38:	c7 45 fc ff ff ff ff 	movl   $0xffffffff,-0x4(%ebp)
 8048f3f:	eb 54                	jmp    8048f95 <fun7+0x69>
 8048f41:	8b 45 08             	mov    0x8(%ebp),%eax
 8048f44:	8b 00                	mov    (%eax),%eax
 8048f46:	3b 45 0c             	cmp    0xc(%ebp),%eax
 8048f49:	7e 1c                	jle    8048f67 <fun7+0x3b>
 8048f4b:	8b 45 08             	mov    0x8(%ebp),%eax
 8048f4e:	8b 50 04             	mov    0x4(%eax),%edx
 8048f51:	8b 45 0c             	mov    0xc(%ebp),%eax
 8048f54:	89 44 24 04          	mov    %eax,0x4(%esp)
 8048f58:	89 14 24             	mov    %edx,(%esp)
 8048f5b:	e8 cc ff ff ff       	call   8048f2c <fun7>
 8048f60:	01 c0                	add    %eax,%eax
 8048f62:	89 45 fc             	mov    %eax,-0x4(%ebp)
 8048f65:	eb 2e                	jmp    8048f95 <fun7+0x69>
 8048f67:	8b 45 08             	mov    0x8(%ebp),%eax
 8048f6a:	8b 00                	mov    (%eax),%eax
 8048f6c:	3b 45 0c             	cmp    0xc(%ebp),%eax
 8048f6f:	75 09                	jne    8048f7a <fun7+0x4e>
 8048f71:	c7 45 fc 00 00 00 00 	movl   $0x0,-0x4(%ebp)
 8048f78:	eb 1b                	jmp    8048f95 <fun7+0x69>
 8048f7a:	8b 45 08             	mov    0x8(%ebp),%eax
 8048f7d:	8b 50 08             	mov    0x8(%eax),%edx
 8048f80:	8b 45 0c             	mov    0xc(%ebp),%eax
 8048f83:	89 44 24 04          	mov    %eax,0x4(%esp)
 8048f87:	89 14 24             	mov    %edx,(%esp)
 8048f8a:	e8 9d ff ff ff       	call   8048f2c <fun7>
 8048f8f:	01 c0                	add    %eax,%eax
 8048f91:	40                   	inc    %eax
 8048f92:	89 45 fc             	mov    %eax,-0x4(%ebp)
 8048f95:	8b 45 fc             	mov    -0x4(%ebp),%eax
 8048f98:	c9                   	leave  
 8048f99:	c3                   	ret    

08048f9a <secret_phase>:
 8048f9a:	55                   	push   %ebp
 8048f9b:	89 e5                	mov    %esp,%ebp
 8048f9d:	83 ec 18             	sub    $0x18,%esp
 8048fa0:	e8 a9 03 00 00       	call   804934e <read_line>
 8048fa5:	89 45 f4             	mov    %eax,-0xc(%ebp)
 8048fa8:	8b 45 f4             	mov    -0xc(%ebp),%eax
 8048fab:	89 04 24             	mov    %eax,(%esp)
 8048fae:	e8 a5 f8 ff ff       	call   8048858 <atoi@plt>
 8048fb3:	89 45 f8             	mov    %eax,-0x8(%ebp)
 8048fb6:	83 7d f8 00          	cmpl   $0x0,-0x8(%ebp)
 8048fba:	7e 09                	jle    8048fc5 <secret_phase+0x2b>
 8048fbc:	81 7d f8 e9 03 00 00 	cmpl   $0x3e9,-0x8(%ebp)
 8048fc3:	7e 05                	jle    8048fca <secret_phase+0x30>
 8048fc5:	e8 10 07 00 00       	call   80496da <explode_bomb>
 8048fca:	8b 45 f8             	mov    -0x8(%ebp),%eax
 8048fcd:	89 44 24 04          	mov    %eax,0x4(%esp)
 8048fd1:	c7 04 24 f0 a6 04 08 	movl   $0x804a6f0,(%esp)
 8048fd8:	e8 4f ff ff ff       	call   8048f2c <fun7>
 8048fdd:	89 45 fc             	mov    %eax,-0x4(%ebp)
 8048fe0:	83 7d fc 02          	cmpl   $0x2,-0x4(%ebp)
 8048fe4:	74 05                	je     8048feb <secret_phase+0x51>
 8048fe6:	e8 ef 06 00 00       	call   80496da <explode_bomb>
 8048feb:	c7 04 24 4c 9a 04 08 	movl   $0x8049a4c,(%esp)
 8048ff2:	e8 d1 f7 ff ff       	call   80487c8 <puts@plt>
 8048ff7:	e8 08 07 00 00       	call   8049704 <phase_defused>
 8048ffc:	c9                   	leave  
 8048ffd:	c3                   	ret    
 8048ffe:	90                   	nop
 8048fff:	90                   	nop

08049000 <sig_handler>:
 8049000:	55                   	push   %ebp
 8049001:	89 e5                	mov    %esp,%ebp
 8049003:	83 ec 08             	sub    $0x8,%esp
 8049006:	c7 04 24 c4 9c 04 08 	movl   $0x8049cc4,(%esp)
 804900d:	e8 b6 f7 ff ff       	call   80487c8 <puts@plt>
 8049012:	c7 04 24 03 00 00 00 	movl   $0x3,(%esp)
 8049019:	e8 ca f7 ff ff       	call   80487e8 <sleep@plt>
 804901e:	c7 04 24 fc 9c 04 08 	movl   $0x8049cfc,(%esp)
 8049025:	e8 ee f7 ff ff       	call   8048818 <printf@plt>
 804902a:	a1 40 a8 04 08       	mov    0x804a840,%eax
 804902f:	89 04 24             	mov    %eax,(%esp)
 8049032:	e8 51 f7 ff ff       	call   8048788 <fflush@plt>
 8049037:	c7 04 24 01 00 00 00 	movl   $0x1,(%esp)
 804903e:	e8 a5 f7 ff ff       	call   80487e8 <sleep@plt>
 8049043:	c7 04 24 04 9d 04 08 	movl   $0x8049d04,(%esp)
 804904a:	e8 79 f7 ff ff       	call   80487c8 <puts@plt>
 804904f:	c7 04 24 10 00 00 00 	movl   $0x10,(%esp)
 8049056:	e8 ed f7 ff ff       	call   8048848 <exit@plt>

0804905b <invalid_phase>:
 804905b:	55                   	push   %ebp
 804905c:	89 e5                	mov    %esp,%ebp
 804905e:	83 ec 08             	sub    $0x8,%esp
 8049061:	8b 45 08             	mov    0x8(%ebp),%eax
 8049064:	89 44 24 04          	mov    %eax,0x4(%esp)
 8049068:	c7 04 24 0c 9d 04 08 	movl   $0x8049d0c,(%esp)
 804906f:	e8 a4 f7 ff ff       	call   8048818 <printf@plt>
 8049074:	c7 04 24 08 00 00 00 	movl   $0x8,(%esp)
 804907b:	e8 c8 f7 ff ff       	call   8048848 <exit@plt>

08049080 <read_six_numbers>:
 8049080:	55                   	push   %ebp
 8049081:	89 e5                	mov    %esp,%ebp
 8049083:	56                   	push   %esi
 8049084:	53                   	push   %ebx
 8049085:	83 ec 30             	sub    $0x30,%esp
 8049088:	8b 45 0c             	mov    0xc(%ebp),%eax
 804908b:	83 c0 14             	add    $0x14,%eax
 804908e:	8b 55 0c             	mov    0xc(%ebp),%edx
 8049091:	83 c2 10             	add    $0x10,%edx
 8049094:	8b 4d 0c             	mov    0xc(%ebp),%ecx
 8049097:	83 c1 0c             	add    $0xc,%ecx
 804909a:	8b 5d 0c             	mov    0xc(%ebp),%ebx
 804909d:	83 c3 08             	add    $0x8,%ebx
 80490a0:	8b 75 0c             	mov    0xc(%ebp),%esi
 80490a3:	83 c6 04             	add    $0x4,%esi
 80490a6:	89 44 24 1c          	mov    %eax,0x1c(%esp)
 80490aa:	89 54 24 18          	mov    %edx,0x18(%esp)
 80490ae:	89 4c 24 14          	mov    %ecx,0x14(%esp)
 80490b2:	89 5c 24 10          	mov    %ebx,0x10(%esp)
 80490b6:	89 74 24 0c          	mov    %esi,0xc(%esp)
 80490ba:	8b 45 0c             	mov    0xc(%ebp),%eax
 80490bd:	89 44 24 08          	mov    %eax,0x8(%esp)
 80490c1:	c7 44 24 04 1d 9d 04 	movl   $0x8049d1d,0x4(%esp)
 80490c8:	08 
 80490c9:	8b 45 08             	mov    0x8(%ebp),%eax
 80490cc:	89 04 24             	mov    %eax,(%esp)
 80490cf:	e8 94 f7 ff ff       	call   8048868 <sscanf@plt>
 80490d4:	89 45 f4             	mov    %eax,-0xc(%ebp)
 80490d7:	83 7d f4 05          	cmpl   $0x5,-0xc(%ebp)
 80490db:	7f 05                	jg     80490e2 <read_six_numbers+0x62>
 80490dd:	e8 f8 05 00 00       	call   80496da <explode_bomb>
 80490e2:	83 c4 30             	add    $0x30,%esp
 80490e5:	5b                   	pop    %ebx
 80490e6:	5e                   	pop    %esi
 80490e7:	5d                   	pop    %ebp
 80490e8:	c3                   	ret    

080490e9 <string_length>:
 80490e9:	55                   	push   %ebp
 80490ea:	89 e5                	mov    %esp,%ebp
 80490ec:	83 ec 10             	sub    $0x10,%esp
 80490ef:	8b 45 08             	mov    0x8(%ebp),%eax
 80490f2:	89 45 fc             	mov    %eax,-0x4(%ebp)
 80490f5:	c7 45 f8 00 00 00 00 	movl   $0x0,-0x8(%ebp)
 80490fc:	eb 06                	jmp    8049104 <string_length+0x1b>
 80490fe:	ff 45 fc             	incl   -0x4(%ebp)
 8049101:	ff 45 f8             	incl   -0x8(%ebp)
 8049104:	8b 45 fc             	mov    -0x4(%ebp),%eax
 8049107:	0f b6 00             	movzbl (%eax),%eax
 804910a:	84 c0                	test   %al,%al
 804910c:	75 f0                	jne    80490fe <string_length+0x15>
 804910e:	8b 45 f8             	mov    -0x8(%ebp),%eax
 8049111:	c9                   	leave  
 8049112:	c3                   	ret    

08049113 <strings_not_equal>:
 8049113:	55                   	push   %ebp
 8049114:	89 e5                	mov    %esp,%ebp
 8049116:	53                   	push   %ebx
 8049117:	83 ec 18             	sub    $0x18,%esp
 804911a:	8b 45 08             	mov    0x8(%ebp),%eax
 804911d:	89 04 24             	mov    %eax,(%esp)
 8049120:	e8 c4 ff ff ff       	call   80490e9 <string_length>
 8049125:	89 c3                	mov    %eax,%ebx
 8049127:	8b 45 0c             	mov    0xc(%ebp),%eax
 804912a:	89 04 24             	mov    %eax,(%esp)
 804912d:	e8 b7 ff ff ff       	call   80490e9 <string_length>
 8049132:	39 c3                	cmp    %eax,%ebx
 8049134:	74 09                	je     804913f <strings_not_equal+0x2c>
 8049136:	c7 45 e8 01 00 00 00 	movl   $0x1,-0x18(%ebp)
 804913d:	eb 3e                	jmp    804917d <strings_not_equal+0x6a>
 804913f:	8b 45 08             	mov    0x8(%ebp),%eax
 8049142:	89 45 f4             	mov    %eax,-0xc(%ebp)
 8049145:	8b 45 0c             	mov    0xc(%ebp),%eax
 8049148:	89 45 f8             	mov    %eax,-0x8(%ebp)
 804914b:	eb 1f                	jmp    804916c <strings_not_equal+0x59>
 804914d:	8b 45 f4             	mov    -0xc(%ebp),%eax
 8049150:	0f b6 10             	movzbl (%eax),%edx
 8049153:	8b 45 f8             	mov    -0x8(%ebp),%eax
 8049156:	0f b6 00             	movzbl (%eax),%eax
 8049159:	38 c2                	cmp    %al,%dl
 804915b:	74 09                	je     8049166 <strings_not_equal+0x53>
 804915d:	c7 45 e8 01 00 00 00 	movl   $0x1,-0x18(%ebp)
 8049164:	eb 17                	jmp    804917d <strings_not_equal+0x6a>
 8049166:	ff 45 f4             	incl   -0xc(%ebp)
 8049169:	ff 45 f8             	incl   -0x8(%ebp)
 804916c:	8b 45 f4             	mov    -0xc(%ebp),%eax
 804916f:	0f b6 00             	movzbl (%eax),%eax
 8049172:	84 c0                	test   %al,%al
 8049174:	75 d7                	jne    804914d <strings_not_equal+0x3a>
 8049176:	c7 45 e8 00 00 00 00 	movl   $0x0,-0x18(%ebp)
 804917d:	8b 45 e8             	mov    -0x18(%ebp),%eax
 8049180:	83 c4 18             	add    $0x18,%esp
 8049183:	5b                   	pop    %ebx
 8049184:	5d                   	pop    %ebp
 8049185:	c3                   	ret    

08049186 <open_clientfd>:
 8049186:	55                   	push   %ebp
 8049187:	89 e5                	mov    %esp,%ebp
 8049189:	83 ec 38             	sub    $0x38,%esp
 804918c:	c7 44 24 08 00 00 00 	movl   $0x0,0x8(%esp)
 8049193:	00 
 8049194:	c7 44 24 04 01 00 00 	movl   $0x1,0x4(%esp)
 804919b:	00 
 804919c:	c7 04 24 02 00 00 00 	movl   $0x2,(%esp)
 80491a3:	e8 30 f7 ff ff       	call   80488d8 <socket@plt>
 80491a8:	89 45 f8             	mov    %eax,-0x8(%ebp)
 80491ab:	83 7d f8 00          	cmpl   $0x0,-0x8(%ebp)
 80491af:	79 18                	jns    80491c9 <open_clientfd+0x43>
 80491b1:	c7 04 24 2f 9d 04 08 	movl   $0x8049d2f,(%esp)
 80491b8:	e8 0b f6 ff ff       	call   80487c8 <puts@plt>
 80491bd:	c7 04 24 08 00 00 00 	movl   $0x8,(%esp)
 80491c4:	e8 7f f6 ff ff       	call   8048848 <exit@plt>
 80491c9:	8b 45 08             	mov    0x8(%ebp),%eax
 80491cc:	89 04 24             	mov    %eax,(%esp)
 80491cf:	e8 64 f6 ff ff       	call   8048838 <gethostbyname@plt>
 80491d4:	89 45 fc             	mov    %eax,-0x4(%ebp)
 80491d7:	83 7d fc 00          	cmpl   $0x0,-0x4(%ebp)
 80491db:	75 18                	jne    80491f5 <open_clientfd+0x6f>
 80491dd:	c7 04 24 3d 9d 04 08 	movl   $0x8049d3d,(%esp)
 80491e4:	e8 df f5 ff ff       	call   80487c8 <puts@plt>
 80491e9:	c7 04 24 08 00 00 00 	movl   $0x8,(%esp)
 80491f0:	e8 53 f6 ff ff       	call   8048848 <exit@plt>
 80491f5:	8d 45 e8             	lea    -0x18(%ebp),%eax
 80491f8:	c7 00 00 00 00 00    	movl   $0x0,(%eax)
 80491fe:	c7 40 04 00 00 00 00 	movl   $0x0,0x4(%eax)
 8049205:	c7 40 08 00 00 00 00 	movl   $0x0,0x8(%eax)
 804920c:	c7 40 0c 00 00 00 00 	movl   $0x0,0xc(%eax)
 8049213:	66 c7 45 e8 02 00    	movw   $0x2,-0x18(%ebp)
 8049219:	8b 45 fc             	mov    -0x4(%ebp),%eax
 804921c:	8b 40 0c             	mov    0xc(%eax),%eax
 804921f:	89 c1                	mov    %eax,%ecx
 8049221:	8d 45 e8             	lea    -0x18(%ebp),%eax
 8049224:	8d 50 04             	lea    0x4(%eax),%edx
 8049227:	8b 45 fc             	mov    -0x4(%ebp),%eax
 804922a:	8b 40 10             	mov    0x10(%eax),%eax
 804922d:	8b 00                	mov    (%eax),%eax
 804922f:	89 4c 24 08          	mov    %ecx,0x8(%esp)
 8049233:	89 54 24 04          	mov    %edx,0x4(%esp)
 8049237:	89 04 24             	mov    %eax,(%esp)
 804923a:	e8 59 f5 ff ff       	call   8048798 <bcopy@plt>
 804923f:	8b 45 0c             	mov    0xc(%ebp),%eax
 8049242:	0f b7 c0             	movzwl %ax,%eax
 8049245:	89 04 24             	mov    %eax,(%esp)
 8049248:	e8 2b f6 ff ff       	call   8048878 <htons@plt>
 804924d:	0f b7 c0             	movzwl %ax,%eax
 8049250:	66 89 45 ea          	mov    %ax,-0x16(%ebp)
 8049254:	8d 45 e8             	lea    -0x18(%ebp),%eax
 8049257:	c7 44 24 08 10 00 00 	movl   $0x10,0x8(%esp)
 804925e:	00 
 804925f:	89 44 24 04          	mov    %eax,0x4(%esp)
 8049263:	8b 45 f8             	mov    -0x8(%ebp),%eax
 8049266:	89 04 24             	mov    %eax,(%esp)
 8049269:	e8 1a f6 ff ff       	call   8048888 <connect@plt>
 804926e:	85 c0                	test   %eax,%eax
 8049270:	79 18                	jns    804928a <open_clientfd+0x104>
 8049272:	c7 04 24 4b 9d 04 08 	movl   $0x8049d4b,(%esp)
 8049279:	e8 4a f5 ff ff       	call   80487c8 <puts@plt>
 804927e:	c7 04 24 08 00 00 00 	movl   $0x8,(%esp)
 8049285:	e8 be f5 ff ff       	call   8048848 <exit@plt>
 804928a:	8b 45 f8             	mov    -0x8(%ebp),%eax
 804928d:	c9                   	leave  
 804928e:	c3                   	ret    

0804928f <initialize_bomb>:
 804928f:	55                   	push   %ebp
 8049290:	89 e5                	mov    %esp,%ebp
 8049292:	83 ec 08             	sub    $0x8,%esp
 8049295:	c7 44 24 04 00 90 04 	movl   $0x8049000,0x4(%esp)
 804929c:	08 
 804929d:	c7 04 24 02 00 00 00 	movl   $0x2,(%esp)
 80492a4:	e8 cf f4 ff ff       	call   8048778 <signal@plt>
 80492a9:	c9                   	leave  
 80492aa:	c3                   	ret    

080492ab <blank_line>:
 80492ab:	55                   	push   %ebp
 80492ac:	89 e5                	mov    %esp,%ebp
 80492ae:	83 ec 08             	sub    $0x8,%esp
 80492b1:	eb 32                	jmp    80492e5 <blank_line+0x3a>
 80492b3:	e8 30 f6 ff ff       	call   80488e8 <__ctype_b_loc@plt>
 80492b8:	8b 10                	mov    (%eax),%edx
 80492ba:	8b 45 08             	mov    0x8(%ebp),%eax
 80492bd:	0f b6 00             	movzbl (%eax),%eax
 80492c0:	0f be c0             	movsbl %al,%eax
 80492c3:	01 c0                	add    %eax,%eax
 80492c5:	8d 04 02             	lea    (%edx,%eax,1),%eax
 80492c8:	0f b7 00             	movzwl (%eax),%eax
 80492cb:	25 00 20 00 00       	and    $0x2000,%eax
 80492d0:	85 c0                	test   %eax,%eax
 80492d2:	0f 94 c0             	sete   %al
 80492d5:	ff 45 08             	incl   0x8(%ebp)
 80492d8:	84 c0                	test   %al,%al
 80492da:	74 09                	je     80492e5 <blank_line+0x3a>
 80492dc:	c7 45 fc 00 00 00 00 	movl   $0x0,-0x4(%ebp)
 80492e3:	eb 11                	jmp    80492f6 <blank_line+0x4b>
 80492e5:	8b 45 08             	mov    0x8(%ebp),%eax
 80492e8:	0f b6 00             	movzbl (%eax),%eax
 80492eb:	84 c0                	test   %al,%al
 80492ed:	75 c4                	jne    80492b3 <blank_line+0x8>
 80492ef:	c7 45 fc 01 00 00 00 	movl   $0x1,-0x4(%ebp)
 80492f6:	8b 45 fc             	mov    -0x4(%ebp),%eax
 80492f9:	c9                   	leave  
 80492fa:	c3                   	ret    

080492fb <skip>:
 80492fb:	55                   	push   %ebp
 80492fc:	89 e5                	mov    %esp,%ebp
 80492fe:	83 ec 28             	sub    $0x28,%esp
 8049301:	8b 0d 50 a8 04 08    	mov    0x804a850,%ecx
 8049307:	a1 4c a8 04 08       	mov    0x804a84c,%eax
 804930c:	89 c2                	mov    %eax,%edx
 804930e:	89 d0                	mov    %edx,%eax
 8049310:	c1 e0 02             	shl    $0x2,%eax
 8049313:	01 d0                	add    %edx,%eax
 8049315:	c1 e0 04             	shl    $0x4,%eax
 8049318:	05 60 a8 04 08       	add    $0x804a860,%eax
 804931d:	89 4c 24 08          	mov    %ecx,0x8(%esp)
 8049321:	c7 44 24 04 50 00 00 	movl   $0x50,0x4(%esp)
 8049328:	00 
 8049329:	89 04 24             	mov    %eax,(%esp)
 804932c:	e8 a7 f4 ff ff       	call   80487d8 <fgets@plt>
 8049331:	89 45 fc             	mov    %eax,-0x4(%ebp)
 8049334:	83 7d fc 00          	cmpl   $0x0,-0x4(%ebp)
 8049338:	74 0f                	je     8049349 <skip+0x4e>
 804933a:	8b 45 fc             	mov    -0x4(%ebp),%eax
 804933d:	89 04 24             	mov    %eax,(%esp)
 8049340:	e8 66 ff ff ff       	call   80492ab <blank_line>
 8049345:	85 c0                	test   %eax,%eax
 8049347:	75 b8                	jne    8049301 <skip+0x6>
 8049349:	8b 45 fc             	mov    -0x4(%ebp),%eax
 804934c:	c9                   	leave  
 804934d:	c3                   	ret    

0804934e <read_line>:
 804934e:	55                   	push   %ebp
 804934f:	89 e5                	mov    %esp,%ebp
 8049351:	57                   	push   %edi
 8049352:	83 ec 24             	sub    $0x24,%esp
 8049355:	e8 a1 ff ff ff       	call   80492fb <skip>
 804935a:	89 45 f8             	mov    %eax,-0x8(%ebp)
 804935d:	83 7d f8 00          	cmpl   $0x0,-0x8(%ebp)
 8049361:	75 67                	jne    80493ca <read_line+0x7c>
 8049363:	8b 15 50 a8 04 08    	mov    0x804a850,%edx
 8049369:	a1 44 a8 04 08       	mov    0x804a844,%eax
 804936e:	39 c2                	cmp    %eax,%edx
 8049370:	75 13                	jne    8049385 <read_line+0x37>
 8049372:	c7 04 24 59 9d 04 08 	movl   $0x8049d59,(%esp)
 8049379:	e8 4a f4 ff ff       	call   80487c8 <puts@plt>
 804937e:	e8 57 03 00 00       	call   80496da <explode_bomb>
 8049383:	eb 45                	jmp    80493ca <read_line+0x7c>
 8049385:	c7 04 24 77 9d 04 08 	movl   $0x8049d77,(%esp)
 804938c:	e8 d7 f3 ff ff       	call   8048768 <getenv@plt>
 8049391:	85 c0                	test   %eax,%eax
 8049393:	74 0c                	je     80493a1 <read_line+0x53>
 8049395:	c7 04 24 00 00 00 00 	movl   $0x0,(%esp)
 804939c:	e8 a7 f4 ff ff       	call   8048848 <exit@plt>
 80493a1:	a1 44 a8 04 08       	mov    0x804a844,%eax
 80493a6:	a3 50 a8 04 08       	mov    %eax,0x804a850
 80493ab:	e8 4b ff ff ff       	call   80492fb <skip>
 80493b0:	89 45 f8             	mov    %eax,-0x8(%ebp)
 80493b3:	83 7d f8 00          	cmpl   $0x0,-0x8(%ebp)
 80493b7:	75 11                	jne    80493ca <read_line+0x7c>
 80493b9:	c7 04 24 59 9d 04 08 	movl   $0x8049d59,(%esp)
 80493c0:	e8 03 f4 ff ff       	call   80487c8 <puts@plt>
 80493c5:	e8 10 03 00 00       	call   80496da <explode_bomb>
 80493ca:	a1 4c a8 04 08       	mov    0x804a84c,%eax
 80493cf:	89 c2                	mov    %eax,%edx
 80493d1:	89 d0                	mov    %edx,%eax
 80493d3:	c1 e0 02             	shl    $0x2,%eax
 80493d6:	01 d0                	add    %edx,%eax
 80493d8:	c1 e0 04             	shl    $0x4,%eax
 80493db:	05 60 a8 04 08       	add    $0x804a860,%eax
 80493e0:	b9 ff ff ff ff       	mov    $0xffffffff,%ecx
 80493e5:	89 45 e8             	mov    %eax,-0x18(%ebp)
 80493e8:	b0 00                	mov    $0x0,%al
 80493ea:	fc                   	cld    
 80493eb:	8b 7d e8             	mov    -0x18(%ebp),%edi
 80493ee:	f2 ae                	repnz scas %es:(%edi),%al
 80493f0:	89 c8                	mov    %ecx,%eax
 80493f2:	f7 d0                	not    %eax
 80493f4:	48                   	dec    %eax
 80493f5:	89 45 f4             	mov    %eax,-0xc(%ebp)
 80493f8:	83 7d f4 4f          	cmpl   $0x4f,-0xc(%ebp)
 80493fc:	75 11                	jne    804940f <read_line+0xc1>
 80493fe:	c7 04 24 82 9d 04 08 	movl   $0x8049d82,(%esp)
 8049405:	e8 be f3 ff ff       	call   80487c8 <puts@plt>
 804940a:	e8 cb 02 00 00       	call   80496da <explode_bomb>
 804940f:	8b 15 4c a8 04 08    	mov    0x804a84c,%edx
 8049415:	8b 4d f4             	mov    -0xc(%ebp),%ecx
 8049418:	49                   	dec    %ecx
 8049419:	89 d0                	mov    %edx,%eax
 804941b:	c1 e0 02             	shl    $0x2,%eax
 804941e:	01 d0                	add    %edx,%eax
 8049420:	c1 e0 04             	shl    $0x4,%eax
 8049423:	01 c8                	add    %ecx,%eax
 8049425:	05 60 a8 04 08       	add    $0x804a860,%eax
 804942a:	c6 00 00             	movb   $0x0,(%eax)
 804942d:	8b 0d 4c a8 04 08    	mov    0x804a84c,%ecx
 8049433:	89 ca                	mov    %ecx,%edx
 8049435:	89 d0                	mov    %edx,%eax
 8049437:	c1 e0 02             	shl    $0x2,%eax
 804943a:	01 d0                	add    %edx,%eax
 804943c:	c1 e0 04             	shl    $0x4,%eax
 804943f:	05 60 a8 04 08       	add    $0x804a860,%eax
 8049444:	89 c2                	mov    %eax,%edx
 8049446:	8d 41 01             	lea    0x1(%ecx),%eax
 8049449:	a3 4c a8 04 08       	mov    %eax,0x804a84c
 804944e:	89 d0                	mov    %edx,%eax
 8049450:	83 c4 24             	add    $0x24,%esp
 8049453:	5f                   	pop    %edi
 8049454:	5d                   	pop    %ebp
 8049455:	c3                   	ret    

08049456 <send_msg>:
 8049456:	55                   	push   %ebp
 8049457:	89 e5                	mov    %esp,%ebp
 8049459:	81 ec 88 00 00 00    	sub    $0x88,%esp
 804945f:	c7 04 24 00 00 00 00 	movl   $0x0,(%esp)
 8049466:	e8 3d f4 ff ff       	call   80488a8 <dup@plt>
 804946b:	89 45 fc             	mov    %eax,-0x4(%ebp)
 804946e:	83 7d fc ff          	cmpl   $0xffffffff,-0x4(%ebp)
 8049472:	75 18                	jne    804948c <send_msg+0x36>
 8049474:	c7 04 24 9d 9d 04 08 	movl   $0x8049d9d,(%esp)
 804947b:	e8 48 f3 ff ff       	call   80487c8 <puts@plt>
 8049480:	c7 04 24 08 00 00 00 	movl   $0x8,(%esp)
 8049487:	e8 bc f3 ff ff       	call   8048848 <exit@plt>
 804948c:	c7 04 24 00 00 00 00 	movl   $0x0,(%esp)
 8049493:	e8 a0 f2 ff ff       	call   8048738 <close@plt>
 8049498:	83 f8 ff             	cmp    $0xffffffff,%eax
 804949b:	75 18                	jne    80494b5 <send_msg+0x5f>
 804949d:	c7 04 24 b1 9d 04 08 	movl   $0x8049db1,(%esp)
 80494a4:	e8 1f f3 ff ff       	call   80487c8 <puts@plt>
 80494a9:	c7 04 24 08 00 00 00 	movl   $0x8,(%esp)
 80494b0:	e8 93 f3 ff ff       	call   8048848 <exit@plt>
 80494b5:	e8 9e f2 ff ff       	call   8048758 <tmpfile@plt>
 80494ba:	89 45 f0             	mov    %eax,-0x10(%ebp)
 80494bd:	83 7d f0 00          	cmpl   $0x0,-0x10(%ebp)
 80494c1:	75 18                	jne    80494db <send_msg+0x85>
 80494c3:	c7 04 24 c4 9d 04 08 	movl   $0x8049dc4,(%esp)
 80494ca:	e8 f9 f2 ff ff       	call   80487c8 <puts@plt>
 80494cf:	c7 04 24 08 00 00 00 	movl   $0x8,(%esp)
 80494d6:	e8 6d f3 ff ff       	call   8048848 <exit@plt>
 80494db:	8b 45 f0             	mov    -0x10(%ebp),%eax
 80494de:	89 44 24 0c          	mov    %eax,0xc(%esp)
 80494e2:	c7 44 24 08 1b 00 00 	movl   $0x1b,0x8(%esp)
 80494e9:	00 
 80494ea:	c7 44 24 04 01 00 00 	movl   $0x1,0x4(%esp)
 80494f1:	00 
 80494f2:	c7 04 24 d9 9d 04 08 	movl   $0x8049dd9,(%esp)
 80494f9:	e8 ca f3 ff ff       	call   80488c8 <fwrite@plt>
 80494fe:	8b 45 f0             	mov    -0x10(%ebp),%eax
 8049501:	89 44 24 04          	mov    %eax,0x4(%esp)
 8049505:	c7 04 24 0a 00 00 00 	movl   $0xa,(%esp)
 804950c:	e8 e7 f2 ff ff       	call   80487f8 <fputc@plt>
 8049511:	c7 04 24 00 00 00 00 	movl   $0x0,(%esp)
 8049518:	e8 db f3 ff ff       	call   80488f8 <cuserid@plt>
 804951d:	89 45 f8             	mov    %eax,-0x8(%ebp)
 8049520:	83 7d f8 00          	cmpl   $0x0,-0x8(%ebp)
 8049524:	75 15                	jne    804953b <send_msg+0xe5>
 8049526:	8d 45 a0             	lea    -0x60(%ebp),%eax
 8049529:	c7 00 6e 6f 62 6f    	movl   $0x6f626f6e,(%eax)
 804952f:	66 c7 40 04 64 79    	movw   $0x7964,0x4(%eax)
 8049535:	c6 40 06 00          	movb   $0x0,0x6(%eax)
 8049539:	eb 12                	jmp    804954d <send_msg+0xf7>
 804953b:	8b 45 f8             	mov    -0x8(%ebp),%eax
 804953e:	89 44 24 04          	mov    %eax,0x4(%esp)
 8049542:	8d 45 a0             	lea    -0x60(%ebp),%eax
 8049545:	89 04 24             	mov    %eax,(%esp)
 8049548:	e8 cb f3 ff ff       	call   8048918 <strcpy@plt>
 804954d:	a1 4c a8 04 08       	mov    0x804a84c,%eax
 8049552:	89 45 98             	mov    %eax,-0x68(%ebp)
 8049555:	83 7d 08 00          	cmpl   $0x0,0x8(%ebp)
 8049559:	74 09                	je     8049564 <send_msg+0x10e>
 804955b:	c7 45 9c f5 9d 04 08 	movl   $0x8049df5,-0x64(%ebp)
 8049562:	eb 07                	jmp    804956b <send_msg+0x115>
 8049564:	c7 45 9c fd 9d 04 08 	movl   $0x8049dfd,-0x64(%ebp)
 804956b:	a1 a0 a1 04 08       	mov    0x804a1a0,%eax
 8049570:	8b 55 98             	mov    -0x68(%ebp),%edx
 8049573:	89 54 24 18          	mov    %edx,0x18(%esp)
 8049577:	8b 55 9c             	mov    -0x64(%ebp),%edx
 804957a:	89 54 24 14          	mov    %edx,0x14(%esp)
 804957e:	8d 55 a0             	lea    -0x60(%ebp),%edx
 8049581:	89 54 24 10          	mov    %edx,0x10(%esp)
 8049585:	89 44 24 0c          	mov    %eax,0xc(%esp)
 8049589:	c7 44 24 08 c0 a1 04 	movl   $0x804a1c0,0x8(%esp)
 8049590:	08 
 8049591:	c7 44 24 04 06 9e 04 	movl   $0x8049e06,0x4(%esp)
 8049598:	08 
 8049599:	8b 45 f0             	mov    -0x10(%ebp),%eax
 804959c:	89 04 24             	mov    %eax,(%esp)
 804959f:	e8 a4 f1 ff ff       	call   8048748 <fprintf@plt>
 80495a4:	c7 45 f4 00 00 00 00 	movl   $0x0,-0xc(%ebp)
 80495ab:	eb 4d                	jmp    80495fa <send_msg+0x1a4>
 80495ad:	8b 55 f4             	mov    -0xc(%ebp),%edx
 80495b0:	89 d0                	mov    %edx,%eax
 80495b2:	c1 e0 02             	shl    $0x2,%eax
 80495b5:	01 d0                	add    %edx,%eax
 80495b7:	c1 e0 04             	shl    $0x4,%eax
 80495ba:	05 60 a8 04 08       	add    $0x804a860,%eax
 80495bf:	8b 55 f4             	mov    -0xc(%ebp),%edx
 80495c2:	42                   	inc    %edx
 80495c3:	8b 0d a0 a1 04 08    	mov    0x804a1a0,%ecx
 80495c9:	89 44 24 18          	mov    %eax,0x18(%esp)
 80495cd:	89 54 24 14          	mov    %edx,0x14(%esp)
 80495d1:	8d 45 a0             	lea    -0x60(%ebp),%eax
 80495d4:	89 44 24 10          	mov    %eax,0x10(%esp)
 80495d8:	89 4c 24 0c          	mov    %ecx,0xc(%esp)
 80495dc:	c7 44 24 08 c0 a1 04 	movl   $0x804a1c0,0x8(%esp)
 80495e3:	08 
 80495e4:	c7 44 24 04 22 9e 04 	movl   $0x8049e22,0x4(%esp)
 80495eb:	08 
 80495ec:	8b 45 f0             	mov    -0x10(%ebp),%eax
 80495ef:	89 04 24             	mov    %eax,(%esp)
 80495f2:	e8 51 f1 ff ff       	call   8048748 <fprintf@plt>
 80495f7:	ff 45 f4             	incl   -0xc(%ebp)
 80495fa:	a1 4c a8 04 08       	mov    0x804a84c,%eax
 80495ff:	39 45 f4             	cmp    %eax,-0xc(%ebp)
 8049602:	7c a9                	jl     80495ad <send_msg+0x157>
 8049604:	8b 45 f0             	mov    -0x10(%ebp),%eax
 8049607:	89 04 24             	mov    %eax,(%esp)
 804960a:	e8 99 f1 ff ff       	call   80487a8 <rewind@plt>
 804960f:	c7 44 24 10 89 9a 04 	movl   $0x8049a89,0x10(%esp)
 8049616:	08 
 8049617:	c7 44 24 0c 3e 9e 04 	movl   $0x8049e3e,0xc(%esp)
 804961e:	08 
 804961f:	c7 44 24 08 43 9e 04 	movl   $0x8049e43,0x8(%esp)
 8049626:	08 
 8049627:	c7 44 24 04 5a 9e 04 	movl   $0x8049e5a,0x4(%esp)
 804962e:	08 
 804962f:	c7 04 24 a0 ae 04 08 	movl   $0x804aea0,(%esp)
 8049636:	e8 7d f2 ff ff       	call   80488b8 <sprintf@plt>
 804963b:	c7 04 24 a0 ae 04 08 	movl   $0x804aea0,(%esp)
 8049642:	e8 71 f1 ff ff       	call   80487b8 <system@plt>
 8049647:	85 c0                	test   %eax,%eax
 8049649:	74 18                	je     8049663 <send_msg+0x20d>
 804964b:	c7 04 24 63 9e 04 08 	movl   $0x8049e63,(%esp)
 8049652:	e8 71 f1 ff ff       	call   80487c8 <puts@plt>
 8049657:	c7 04 24 08 00 00 00 	movl   $0x8,(%esp)
 804965e:	e8 e5 f1 ff ff       	call   8048848 <exit@plt>
 8049663:	8b 45 f0             	mov    -0x10(%ebp),%eax
 8049666:	89 04 24             	mov    %eax,(%esp)
 8049669:	e8 ba f1 ff ff       	call   8048828 <fclose@plt>
 804966e:	85 c0                	test   %eax,%eax
 8049670:	74 18                	je     804968a <send_msg+0x234>
 8049672:	c7 04 24 7d 9e 04 08 	movl   $0x8049e7d,(%esp)
 8049679:	e8 4a f1 ff ff       	call   80487c8 <puts@plt>
 804967e:	c7 04 24 08 00 00 00 	movl   $0x8,(%esp)
 8049685:	e8 be f1 ff ff       	call   8048848 <exit@plt>
 804968a:	8b 45 fc             	mov    -0x4(%ebp),%eax
 804968d:	89 04 24             	mov    %eax,(%esp)
 8049690:	e8 13 f2 ff ff       	call   80488a8 <dup@plt>
 8049695:	85 c0                	test   %eax,%eax
 8049697:	74 18                	je     80496b1 <send_msg+0x25b>
 8049699:	c7 04 24 96 9e 04 08 	movl   $0x8049e96,(%esp)
 80496a0:	e8 23 f1 ff ff       	call   80487c8 <puts@plt>
 80496a5:	c7 04 24 08 00 00 00 	movl   $0x8,(%esp)
 80496ac:	e8 97 f1 ff ff       	call   8048848 <exit@plt>
 80496b1:	8b 45 fc             	mov    -0x4(%ebp),%eax
 80496b4:	89 04 24             	mov    %eax,(%esp)
 80496b7:	e8 7c f0 ff ff       	call   8048738 <close@plt>
 80496bc:	85 c0                	test   %eax,%eax
 80496be:	74 18                	je     80496d8 <send_msg+0x282>
 80496c0:	c7 04 24 b1 9e 04 08 	movl   $0x8049eb1,(%esp)
 80496c7:	e8 fc f0 ff ff       	call   80487c8 <puts@plt>
 80496cc:	c7 04 24 08 00 00 00 	movl   $0x8,(%esp)
 80496d3:	e8 70 f1 ff ff       	call   8048848 <exit@plt>
 80496d8:	c9                   	leave  
 80496d9:	c3                   	ret    

080496da <explode_bomb>:
 80496da:	55                   	push   %ebp
 80496db:	89 e5                	mov    %esp,%ebp
 80496dd:	83 ec 08             	sub    $0x8,%esp
 80496e0:	c7 04 24 c8 9e 04 08 	movl   $0x8049ec8,(%esp)
 80496e7:	e8 dc f0 ff ff       	call   80487c8 <puts@plt>
 80496ec:	c7 04 24 d1 9e 04 08 	movl   $0x8049ed1,(%esp)
 80496f3:	e8 d0 f0 ff ff       	call   80487c8 <puts@plt>
 80496f8:	c7 04 24 08 00 00 00 	movl   $0x8,(%esp)
 80496ff:	e8 44 f1 ff ff       	call   8048848 <exit@plt>

08049704 <phase_defused>:
 8049704:	55                   	push   %ebp
 8049705:	89 e5                	mov    %esp,%ebp
 8049707:	83 ec 78             	sub    $0x78,%esp
 804970a:	a1 4c a8 04 08       	mov    0x804a84c,%eax
 804970f:	83 f8 06             	cmp    $0x6,%eax
 8049712:	75 6e                	jne    8049782 <phase_defused+0x7e>
 8049714:	b8 50 a9 04 08       	mov    $0x804a950,%eax
 8049719:	89 c2                	mov    %eax,%edx
 804971b:	8d 45 ac             	lea    -0x54(%ebp),%eax
 804971e:	89 44 24 0c          	mov    %eax,0xc(%esp)
 8049722:	8d 45 a8             	lea    -0x58(%ebp),%eax
 8049725:	89 44 24 08          	mov    %eax,0x8(%esp)
 8049729:	c7 44 24 04 e8 9e 04 	movl   $0x8049ee8,0x4(%esp)
 8049730:	08 
 8049731:	89 14 24             	mov    %edx,(%esp)
 8049734:	e8 2f f1 ff ff       	call   8048868 <sscanf@plt>
 8049739:	89 45 fc             	mov    %eax,-0x4(%ebp)
 804973c:	83 7d fc 02          	cmpl   $0x2,-0x4(%ebp)
 8049740:	75 34                	jne    8049776 <phase_defused+0x72>
 8049742:	c7 44 24 04 ee 9e 04 	movl   $0x8049eee,0x4(%esp)
 8049749:	08 
 804974a:	8d 45 ac             	lea    -0x54(%ebp),%eax
 804974d:	89 04 24             	mov    %eax,(%esp)
 8049750:	e8 be f9 ff ff       	call   8049113 <strings_not_equal>
 8049755:	85 c0                	test   %eax,%eax
 8049757:	75 1d                	jne    8049776 <phase_defused+0x72>
 8049759:	c7 04 24 fc 9e 04 08 	movl   $0x8049efc,(%esp)
 8049760:	e8 63 f0 ff ff       	call   80487c8 <puts@plt>
 8049765:	c7 04 24 24 9f 04 08 	movl   $0x8049f24,(%esp)
 804976c:	e8 57 f0 ff ff       	call   80487c8 <puts@plt>
 8049771:	e8 24 f8 ff ff       	call   8048f9a <secret_phase>
 8049776:	c7 04 24 5c 9f 04 08 	movl   $0x8049f5c,(%esp)
 804977d:	e8 46 f0 ff ff       	call   80487c8 <puts@plt>
 8049782:	c9                   	leave  
 8049783:	c3                   	ret    
 8049784:	90                   	nop
 8049785:	90                   	nop
 8049786:	90                   	nop
 8049787:	90                   	nop
 8049788:	90                   	nop
 8049789:	90                   	nop
 804978a:	90                   	nop
 804978b:	90                   	nop
 804978c:	90                   	nop
 804978d:	90                   	nop
 804978e:	90                   	nop
 804978f:	90                   	nop

08049790 <__libc_csu_fini>:
 8049790:	55                   	push   %ebp
 8049791:	89 e5                	mov    %esp,%ebp
 8049793:	57                   	push   %edi
 8049794:	56                   	push   %esi
 8049795:	53                   	push   %ebx
 8049796:	e8 98 00 00 00       	call   8049833 <__i686.get_pc_thunk.bx>
 804979b:	81 c3 45 09 00 00    	add    $0x945,%ebx
 80497a1:	83 ec 0c             	sub    $0xc,%esp
 80497a4:	8d 83 20 ff ff ff    	lea    -0xe0(%ebx),%eax
 80497aa:	8d bb 20 ff ff ff    	lea    -0xe0(%ebx),%edi
 80497b0:	29 f8                	sub    %edi,%eax
 80497b2:	c1 f8 02             	sar    $0x2,%eax
 80497b5:	8d 70 ff             	lea    -0x1(%eax),%esi
 80497b8:	83 fe ff             	cmp    $0xffffffff,%esi
 80497bb:	74 0c                	je     80497c9 <__libc_csu_fini+0x39>
 80497bd:	8d 76 00             	lea    0x0(%esi),%esi
 80497c0:	ff 14 b7             	call   *(%edi,%esi,4)
 80497c3:	4e                   	dec    %esi
 80497c4:	83 fe ff             	cmp    $0xffffffff,%esi
 80497c7:	75 f7                	jne    80497c0 <__libc_csu_fini+0x30>
 80497c9:	8d b4 26 00 00 00 00 	lea    0x0(%esi,%eiz,1),%esi
 80497d0:	e8 9f 00 00 00       	call   8049874 <_fini>
 80497d5:	83 c4 0c             	add    $0xc,%esp
 80497d8:	5b                   	pop    %ebx
 80497d9:	5e                   	pop    %esi
 80497da:	5f                   	pop    %edi
 80497db:	5d                   	pop    %ebp
 80497dc:	c3                   	ret    
 80497dd:	8d 76 00             	lea    0x0(%esi),%esi

080497e0 <__libc_csu_init>:
 80497e0:	55                   	push   %ebp
 80497e1:	89 e5                	mov    %esp,%ebp
 80497e3:	57                   	push   %edi
 80497e4:	56                   	push   %esi
 80497e5:	53                   	push   %ebx
 80497e6:	e8 48 00 00 00       	call   8049833 <__i686.get_pc_thunk.bx>
 80497eb:	81 c3 f5 08 00 00    	add    $0x8f5,%ebx
 80497f1:	83 ec 0c             	sub    $0xc,%esp
 80497f4:	e8 17 ef ff ff       	call   8048710 <_init>
 80497f9:	8d 83 20 ff ff ff    	lea    -0xe0(%ebx),%eax
 80497ff:	8d 93 20 ff ff ff    	lea    -0xe0(%ebx),%edx
 8049805:	29 d0                	sub    %edx,%eax
 8049807:	c1 f8 02             	sar    $0x2,%eax
 804980a:	89 45 f0             	mov    %eax,-0x10(%ebp)
 804980d:	74 1c                	je     804982b <__libc_csu_init+0x4b>
 804980f:	31 ff                	xor    %edi,%edi
 8049811:	89 d6                	mov    %edx,%esi
 8049813:	8d b6 00 00 00 00    	lea    0x0(%esi),%esi
 8049819:	8d bc 27 00 00 00 00 	lea    0x0(%edi,%eiz,1),%edi
 8049820:	47                   	inc    %edi
 8049821:	ff 16                	call   *(%esi)
 8049823:	83 c6 04             	add    $0x4,%esi
 8049826:	39 7d f0             	cmp    %edi,-0x10(%ebp)
 8049829:	75 f5                	jne    8049820 <__libc_csu_init+0x40>
 804982b:	83 c4 0c             	add    $0xc,%esp
 804982e:	5b                   	pop    %ebx
 804982f:	5e                   	pop    %esi
 8049830:	5f                   	pop    %edi
 8049831:	5d                   	pop    %ebp
 8049832:	c3                   	ret    

08049833 <__i686.get_pc_thunk.bx>:
 8049833:	8b 1c 24             	mov    (%esp),%ebx
 8049836:	c3                   	ret    
 8049837:	90                   	nop
 8049838:	90                   	nop
 8049839:	90                   	nop
 804983a:	90                   	nop
 804983b:	90                   	nop
 804983c:	90                   	nop
 804983d:	90                   	nop
 804983e:	90                   	nop
 804983f:	90                   	nop

08049840 <__do_global_ctors_aux>:
 8049840:	55                   	push   %ebp
 8049841:	89 e5                	mov    %esp,%ebp
 8049843:	53                   	push   %ebx
 8049844:	bb 00 a0 04 08       	mov    $0x804a000,%ebx
 8049849:	83 ec 04             	sub    $0x4,%esp
 804984c:	a1 00 a0 04 08       	mov    0x804a000,%eax
 8049851:	83 f8 ff             	cmp    $0xffffffff,%eax
 8049854:	74 16                	je     804986c <__do_global_ctors_aux+0x2c>
 8049856:	8d 76 00             	lea    0x0(%esi),%esi
 8049859:	8d bc 27 00 00 00 00 	lea    0x0(%edi,%eiz,1),%edi
 8049860:	83 eb 04             	sub    $0x4,%ebx
 8049863:	ff d0                	call   *%eax
 8049865:	8b 03                	mov    (%ebx),%eax
 8049867:	83 f8 ff             	cmp    $0xffffffff,%eax
 804986a:	75 f4                	jne    8049860 <__do_global_ctors_aux+0x20>
 804986c:	58                   	pop    %eax
 804986d:	5b                   	pop    %ebx
 804986e:	5d                   	pop    %ebp
 804986f:	90                   	nop
 8049870:	c3                   	ret    
 8049871:	90                   	nop
 8049872:	90                   	nop
 8049873:	90                   	nop

Disassembly of section .fini:

08049874 <_fini>:
 8049874:	55                   	push   %ebp
 8049875:	89 e5                	mov    %esp,%ebp
 8049877:	53                   	push   %ebx
 8049878:	83 ec 04             	sub    $0x4,%esp
 804987b:	e8 00 00 00 00       	call   8049880 <_fini+0xc>
 8049880:	5b                   	pop    %ebx
 8049881:	81 c3 60 08 00 00    	add    $0x860,%ebx
 8049887:	e8 f4 f0 ff ff       	call   8048980 <__do_global_dtors_aux>
 804988c:	59                   	pop    %ecx
 804988d:	5b                   	pop    %ebx
 804988e:	c9                   	leave  
 804988f:	c3                   	ret    
